(dp1
S'vals'
p2
(lp3
(lp4
F1
aF2
aasS'points'
p5
cnumpy.core.multiarray
_reconstruct
p6
(cnumpy
ndarray
p7
(I0
tS'b'
tRp8
(I1
(L1L
L2L
L2L
tcnumpy
dtype
p9
(S'i4'
I0
I1
tRp10
(I3
S'<'
NNNI-1
I-1
I0
tbI00
S'\x01\x00\x00\x00\x01\x00\x00\x00\x01\x00\x00\x00\x02\x00\x00\x00'
tbs.