(lp1
F-50.872305150000003
aF-53.871915010000002
aF47.729883260000001
aF-19.76062198
aF37.830978000000002
aF-44.590201
aF-37.188837399999997
aF-50.043229050000001
aF-24.66485351
aF20.329345929999999
aF-77.540731969999996
aF-47.298302919999998
aF54.290837860000003
aF-11.29450598
aF-59.63048294
aF-60.617079500000003
aF158.44616819999999
aF47.513186679999997
aF-20.244800479999999
aF-1.3245310400000001
a.