(dp1
S'vals'
p2
(lp3
(lp4
F92.98411787283078
aasS'points'
p5
(lp6
cnumpy.core.multiarray
_reconstruct
p7
(cnumpy
ndarray
p8
(I0
tS'b'
tRp9
(I1
(I1
I8
tcnumpy
dtype
p10
(S'f8'
I0
I1
tRp11
(I3
S'<'
NNNI-1
I-1
I0
tbI00
S'\xc4\x9bs7|\x01*@)sIaW\xb6\x1e@d\x84\x02\xf4~Z\n@T\xb7Nt\x18\xfd\xeb?P\xf1jr\x9ee0@tX\xdeI<(2@\x12e)\xc4X=2@q\xff~\x1d\xdc\xab$@'
tbas.