(dp1
S'vals'
p2
(lp3
(lp4
F4.4037554089221418
aasS'points'
p5
(lp6
cnumpy.core.multiarray
_reconstruct
p7
(cnumpy
ndarray
p8
(I0
tS'b'
tRp9
(I1
(I1
I8
tcnumpy
dtype
p10
(S'f8'
I0
I1
tRp11
(I3
S'<'
NNNI-1
I-1
I0
tbI00
S'\x1e\xf4&\xe5k-,@H$$\xe6t`0@*\xf5\xc4\x96\xda~1@\\Sfz\xbe\xc7+@&6\xf5\x9dr\x042@*\xd3u\xce\xc6V0@%\x81\xeeaR{)@$\xf5s$`6/@'
tbas.