(lp1
F29.565273810000001
aF14.794381270000001
aF-47.81396161
aF-43.748367309999999
aF-76.92749087
aF-61.905629529999999
aF-78.238343580000006
aF173.85641794
aF47.436006339999999
aF-22.468376639999999
aF-35.179476270000002
aF-83.485823940000003
aF-10.91345757
aF-92.310876230000005
aF13.31394521
aF-68.503834240000003
aF-9.8008416599999997
aF99.836246000000003
aF-35.843648289999997
aF-60.24554955
a.